; Function Attrs: nounwind uwtable
define dso_local range(i64 0, 2) i64 @has_function_privilege_name_name(ptr noundef readonly captures(none) %0) local_unnamed_addr #0 {
  %2 = getelementptr inbounds nuw i8, ptr %0, i64 32
  %3 = load i64, ptr %2, align 8
  %4 = inttoptr i64 %3 to ptr
  %5 = getelementptr inbounds nuw i8, ptr %0, i64 48
  %6 = load i64, ptr %5, align 8
  %7 = inttoptr i64 %6 to ptr
  %8 = tail call ptr @pg_detoast_datum_packed(ptr noundef %7) #14
  %9 = getelementptr inbounds nuw i8, ptr %0, i64 64
  %10 = load i64, ptr %9, align 8
  %11 = inttoptr i64 %10 to ptr
  %12 = tail call ptr @pg_detoast_datum_packed(ptr noundef %11) #14
  %13 = tail call i32 @strcmp(ptr noundef nonnull dereferenceable(1) %4, ptr noundef nonnull dereferenceable(7) @.str.32) #17
  %14 = icmp eq i32 %13, 0
  br i1 %14, label %get_role_oid_or_public.exit, label %15

15:                                               ; preds = %1
  %16 = tail call i32 @GetSysCacheOid(i32 noundef 10, i16 noundef signext 1, i64 noundef %3, i64 noundef 0, i64 noundef 0, i64 noundef 0) #14
  %.not.i.not.i = icmp eq i32 %16, 0
  br i1 %.not.i.not.i, label %17, label %get_role_oid_or_public.exit

17:                                               ; preds = %15
  %18 = tail call zeroext i1 @errstart_cold(i32 noundef 21, ptr noundef null) #15
  tail call void @llvm.assume(i1 %18)
  %19 = tail call i32 @errcode(i32 noundef 67137668) #14
  %20 = tail call i32 (ptr, ...) @errmsg(ptr noundef nonnull @.str.31, ptr noundef nonnull %4) #14
  tail call void @errfinish(ptr noundef nonnull @.str.1, i32 noundef 5563, ptr noundef nonnull @__func__.get_role_oid) #14
  unreachable

get_role_oid_or_public.exit:                      ; preds = %1, %15
  %.0.i = phi i32 [ 0, %1 ], [ %16, %15 ]
  %21 = tail call ptr @text_to_cstring(ptr noundef %8) #14
  %22 = ptrtoint ptr %21 to i64
  %23 = tail call i64 @DirectFunctionCall1Coll(ptr noundef nonnull @regprocedurein, i32 noundef 0, i64 noundef %22) #14
  %24 = trunc i64 %23 to i32
  %.not.i = icmp eq i32 %24, 0
  br i1 %.not.i, label %25, label %convert_function_name.exit

25:                                               ; preds = %get_role_oid_or_public.exit
  %26 = tail call zeroext i1 @errstart_cold(i32 noundef 21, ptr noundef null) #15
  tail call void @llvm.assume(i1 %26)
  %27 = tail call i32 @errcode(i32 noundef 52461700) #14
  %28 = tail call i32 (ptr, ...) @errmsg(ptr noundef nonnull @.str.72, ptr noundef %21) #14
  tail call void @errfinish(ptr noundef nonnull @.str.1, i32 noundef 3548, ptr noundef nonnull @__func__.convert_function_name) #14
  unreachable

convert_function_name.exit:                       ; preds = %get_role_oid_or_public.exit
  %29 = tail call fastcc i64 @convert_any_priv_string(ptr noundef %12, ptr noundef nonnull @convert_function_priv_string.function_priv_map)
  %30 = tail call i32 @object_aclcheck(i32 noundef 1255, i32 noundef %24, i32 noundef %.0.i, i64 noundef %29) #14
  %31 = icmp eq i32 %30, 0
  %32 = zext i1 %31 to i64
  ret i64 %32
}